target datalayout = "e-m:e-p270:32:32-p271:32:32-p272:64:64-i64:64-i128:128-f80:128-n8:16:32:64-S128"
target triple = "x86_64-pc-linux-gnu"

%struct.uv_stat_t = type { i64, i64, i64, i64, i64, i64, i64, i64, i64, i64, i64, i64, %struct.uv_timespec_t, %struct.uv_timespec_t, %struct.uv_timespec_t, %struct.uv_timespec_t }
%struct.uv_timespec_t = type { i64, i64 }
%struct.uv_fs_poll_s = type { ptr, ptr, i32, ptr, [2 x ptr], %union.anon, ptr, i32, ptr }
%union.anon = type { [4 x ptr] }
%struct.poll_ctx = type { ptr, i32, i32, i64, ptr, ptr, %struct.uv_timer_s, %struct.uv_fs_s, %struct.uv_stat_t, ptr, [1 x i8] }
%struct.uv_timer_s = type { ptr, ptr, i32, ptr, [2 x ptr], %union.anon.5, ptr, i32, ptr, [3 x ptr], i64, i64, i64 }
%union.anon.5 = type { [4 x ptr] }
%struct.uv_fs_s = type { ptr, i32, [6 x ptr], i32, ptr, ptr, i64, ptr, ptr, %struct.uv_stat_t, ptr, i32, i32, i32, i32, ptr, i64, i32, i32, double, double, %struct.uv__work, [4 x %struct.uv_buf_t] }
%struct.uv__work = type { ptr, ptr, ptr, [2 x ptr] }
%struct.uv_buf_t = type { ptr, i64 }

@zero_statbuf = internal global %struct.uv_stat_t zeroinitializer, align 8

; Function Attrs: nounwind uwtable
define internal i32 @statbuf_eq(ptr noundef %0, ptr noundef %1) #0 {
  %3 = alloca ptr, align 8
  %4 = alloca ptr, align 8
  store ptr %0, ptr %3, align 8, !tbaa !17
  store ptr %1, ptr %4, align 8, !tbaa !17
  %5 = load ptr, ptr %3, align 8, !tbaa !17
  %6 = getelementptr inbounds nuw %struct.uv_stat_t, ptr %5, i32 0, i32 14
  %7 = getelementptr inbounds nuw %struct.uv_timespec_t, ptr %6, i32 0, i32 1
  %8 = load i64, ptr %7, align 8, !tbaa !66
  %9 = load ptr, ptr %4, align 8, !tbaa !17
  %10 = getelementptr inbounds nuw %struct.uv_stat_t, ptr %9, i32 0, i32 14
  %11 = getelementptr inbounds nuw %struct.uv_timespec_t, ptr %10, i32 0, i32 1
  %12 = load i64, ptr %11, align 8, !tbaa !66
  %13 = icmp eq i64 %8, %12
  br i1 %13, label %14, label %128

14:                                               ; preds = %2
  %15 = load ptr, ptr %3, align 8, !tbaa !17
  %16 = getelementptr inbounds nuw %struct.uv_stat_t, ptr %15, i32 0, i32 13
  %17 = getelementptr inbounds nuw %struct.uv_timespec_t, ptr %16, i32 0, i32 1
  %18 = load i64, ptr %17, align 8, !tbaa !67
  %19 = load ptr, ptr %4, align 8, !tbaa !17
  %20 = getelementptr inbounds nuw %struct.uv_stat_t, ptr %19, i32 0, i32 13
  %21 = getelementptr inbounds nuw %struct.uv_timespec_t, ptr %20, i32 0, i32 1
  %22 = load i64, ptr %21, align 8, !tbaa !67
  %23 = icmp eq i64 %18, %22
  br i1 %23, label %24, label %128

24:                                               ; preds = %14
  %25 = load ptr, ptr %3, align 8, !tbaa !17
  %26 = getelementptr inbounds nuw %struct.uv_stat_t, ptr %25, i32 0, i32 15
  %27 = getelementptr inbounds nuw %struct.uv_timespec_t, ptr %26, i32 0, i32 1
  %28 = load i64, ptr %27, align 8, !tbaa !68
  %29 = load ptr, ptr %4, align 8, !tbaa !17
  %30 = getelementptr inbounds nuw %struct.uv_stat_t, ptr %29, i32 0, i32 15
  %31 = getelementptr inbounds nuw %struct.uv_timespec_t, ptr %30, i32 0, i32 1
  %32 = load i64, ptr %31, align 8, !tbaa !68
  %33 = icmp eq i64 %28, %32
  br i1 %33, label %34, label %128

34:                                               ; preds = %24
  %35 = load ptr, ptr %3, align 8, !tbaa !17
  %36 = getelementptr inbounds nuw %struct.uv_stat_t, ptr %35, i32 0, i32 14
  %37 = getelementptr inbounds nuw %struct.uv_timespec_t, ptr %36, i32 0, i32 0
  %38 = load i64, ptr %37, align 8, !tbaa !69
  %39 = load ptr, ptr %4, align 8, !tbaa !17
  %40 = getelementptr inbounds nuw %struct.uv_stat_t, ptr %39, i32 0, i32 14
  %41 = getelementptr inbounds nuw %struct.uv_timespec_t, ptr %40, i32 0, i32 0
  %42 = load i64, ptr %41, align 8, !tbaa !69
  %43 = icmp eq i64 %38, %42
  br i1 %43, label %44, label %128

44:                                               ; preds = %34
  %45 = load ptr, ptr %3, align 8, !tbaa !17
  %46 = getelementptr inbounds nuw %struct.uv_stat_t, ptr %45, i32 0, i32 13
  %47 = getelementptr inbounds nuw %struct.uv_timespec_t, ptr %46, i32 0, i32 0
  %48 = load i64, ptr %47, align 8, !tbaa !70
  %49 = load ptr, ptr %4, align 8, !tbaa !17
  %50 = getelementptr inbounds nuw %struct.uv_stat_t, ptr %49, i32 0, i32 13
  %51 = getelementptr inbounds nuw %struct.uv_timespec_t, ptr %50, i32 0, i32 0
  %52 = load i64, ptr %51, align 8, !tbaa !70
  %53 = icmp eq i64 %48, %52
  br i1 %53, label %54, label %128

54:                                               ; preds = %44
  %55 = load ptr, ptr %3, align 8, !tbaa !17
  %56 = getelementptr inbounds nuw %struct.uv_stat_t, ptr %55, i32 0, i32 15
  %57 = getelementptr inbounds nuw %struct.uv_timespec_t, ptr %56, i32 0, i32 0
  %58 = load i64, ptr %57, align 8, !tbaa !71
  %59 = load ptr, ptr %4, align 8, !tbaa !17
  %60 = getelementptr inbounds nuw %struct.uv_stat_t, ptr %59, i32 0, i32 15
  %61 = getelementptr inbounds nuw %struct.uv_timespec_t, ptr %60, i32 0, i32 0
  %62 = load i64, ptr %61, align 8, !tbaa !71
  %63 = icmp eq i64 %58, %62
  br i1 %63, label %64, label %128

64:                                               ; preds = %54
  %65 = load ptr, ptr %3, align 8, !tbaa !17
  %66 = getelementptr inbounds nuw %struct.uv_stat_t, ptr %65, i32 0, i32 7
  %67 = load i64, ptr %66, align 8, !tbaa !72
  %68 = load ptr, ptr %4, align 8, !tbaa !17
  %69 = getelementptr inbounds nuw %struct.uv_stat_t, ptr %68, i32 0, i32 7
  %70 = load i64, ptr %69, align 8, !tbaa !72
  %71 = icmp eq i64 %67, %70
  br i1 %71, label %72, label %128

72:                                               ; preds = %64
  %73 = load ptr, ptr %3, align 8, !tbaa !17
  %74 = getelementptr inbounds nuw %struct.uv_stat_t, ptr %73, i32 0, i32 1
  %75 = load i64, ptr %74, align 8, !tbaa !73
  %76 = load ptr, ptr %4, align 8, !tbaa !17
  %77 = getelementptr inbounds nuw %struct.uv_stat_t, ptr %76, i32 0, i32 1
  %78 = load i64, ptr %77, align 8, !tbaa !73
  %79 = icmp eq i64 %75, %78
  br i1 %79, label %80, label %128

80:                                               ; preds = %72
  %81 = load ptr, ptr %3, align 8, !tbaa !17
  %82 = getelementptr inbounds nuw %struct.uv_stat_t, ptr %81, i32 0, i32 3
  %83 = load i64, ptr %82, align 8, !tbaa !74
  %84 = load ptr, ptr %4, align 8, !tbaa !17
  %85 = getelementptr inbounds nuw %struct.uv_stat_t, ptr %84, i32 0, i32 3
  %86 = load i64, ptr %85, align 8, !tbaa !74
  %87 = icmp eq i64 %83, %86
  br i1 %87, label %88, label %128

88:                                               ; preds = %80
  %89 = load ptr, ptr %3, align 8, !tbaa !17
  %90 = getelementptr inbounds nuw %struct.uv_stat_t, ptr %89, i32 0, i32 4
  %91 = load i64, ptr %90, align 8, !tbaa !75
  %92 = load ptr, ptr %4, align 8, !tbaa !17
  %93 = getelementptr inbounds nuw %struct.uv_stat_t, ptr %92, i32 0, i32 4
  %94 = load i64, ptr %93, align 8, !tbaa !75
  %95 = icmp eq i64 %91, %94
  br i1 %95, label %96, label %128

96:                                               ; preds = %88
  %97 = load ptr, ptr %3, align 8, !tbaa !17
  %98 = getelementptr inbounds nuw %struct.uv_stat_t, ptr %97, i32 0, i32 6
  %99 = load i64, ptr %98, align 8, !tbaa !76
  %100 = load ptr, ptr %4, align 8, !tbaa !17
  %101 = getelementptr inbounds nuw %struct.uv_stat_t, ptr %100, i32 0, i32 6
  %102 = load i64, ptr %101, align 8, !tbaa !76
  %103 = icmp eq i64 %99, %102
  br i1 %103, label %104, label %128

104:                                              ; preds = %96
  %105 = load ptr, ptr %3, align 8, !tbaa !17
  %106 = getelementptr inbounds nuw %struct.uv_stat_t, ptr %105, i32 0, i32 0
  %107 = load i64, ptr %106, align 8, !tbaa !77
  %108 = load ptr, ptr %4, align 8, !tbaa !17
  %109 = getelementptr inbounds nuw %struct.uv_stat_t, ptr %108, i32 0, i32 0
  %110 = load i64, ptr %109, align 8, !tbaa !77
  %111 = icmp eq i64 %107, %110
  br i1 %111, label %112, label %128

112:                                              ; preds = %104
  %113 = load ptr, ptr %3, align 8, !tbaa !17
  %114 = getelementptr inbounds nuw %struct.uv_stat_t, ptr %113, i32 0, i32 10
  %115 = load i64, ptr %114, align 8, !tbaa !78
  %116 = load ptr, ptr %4, align 8, !tbaa !17
  %117 = getelementptr inbounds nuw %struct.uv_stat_t, ptr %116, i32 0, i32 10
  %118 = load i64, ptr %117, align 8, !tbaa !78
  %119 = icmp eq i64 %115, %118
  br i1 %119, label %120, label %128

120:                                              ; preds = %112
  %121 = load ptr, ptr %3, align 8, !tbaa !17
  %122 = getelementptr inbounds nuw %struct.uv_stat_t, ptr %121, i32 0, i32 11
  %123 = load i64, ptr %122, align 8, !tbaa !79
  %124 = load ptr, ptr %4, align 8, !tbaa !17
  %125 = getelementptr inbounds nuw %struct.uv_stat_t, ptr %124, i32 0, i32 11
  %126 = load i64, ptr %125, align 8, !tbaa !79
  %127 = icmp eq i64 %123, %126
  br label %128

128:                                              ; preds = %120, %112, %104, %96, %88, %80, %72, %64, %54, %44, %34, %24, %14, %2
  %129 = phi i1 [ false, %112 ], [ false, %104 ], [ false, %96 ], [ false, %88 ], [ false, %80 ], [ false, %72 ], [ false, %64 ], [ false, %54 ], [ false, %44 ], [ false, %34 ], [ false, %24 ], [ false, %14 ], [ false, %2 ], [ %127, %120 ]
  %130 = zext i1 %129 to i32
  ret i32 %130
}

; Function Attrs: nounwind uwtable
define internal void @poll_cb(ptr noundef %0) #0 {
  %2 = alloca ptr, align 8
  %3 = alloca ptr, align 8
  %4 = alloca ptr, align 8
  %5 = alloca i64, align 8
  %6 = alloca ptr, align 8
  %7 = alloca i32, align 4
  store ptr %0, ptr %2, align 8, !tbaa !55
  call void @llvm.lifetime.start.p0(i64 8, ptr %3) #6
  call void @llvm.lifetime.start.p0(i64 8, ptr %4) #6
  call void @llvm.lifetime.start.p0(i64 8, ptr %5) #6
  call void @llvm.lifetime.start.p0(i64 8, ptr %6) #6
  %8 = load ptr, ptr %2, align 8, !tbaa !55
  %9 = getelementptr inbounds i8, ptr %8, i64 -192
  store ptr %9, ptr %4, align 8, !tbaa !27
  %10 = load ptr, ptr %4, align 8, !tbaa !27
  %11 = getelementptr inbounds nuw %struct.poll_ctx, ptr %10, i32 0, i32 0
  %12 = load ptr, ptr %11, align 8, !tbaa !41
  store ptr %12, ptr %6, align 8, !tbaa !9
  %13 = load ptr, ptr %6, align 8, !tbaa !9
  %14 = call i32 @uv_is_active(ptr noundef %13)
  %15 = icmp ne i32 %14, 0
  br i1 %15, label %16, label %22

16:                                               ; preds = %1
  %17 = load ptr, ptr %6, align 8, !tbaa !9
  %18 = getelementptr inbounds nuw %struct.uv_fs_poll_s, ptr %17, i32 0, i32 7
  %19 = load i32, ptr %18, align 8, !tbaa !54
  %20 = and i32 %19, 3
  %21 = icmp ne i32 %20, 0
  br i1 %21, label %22, label %23

22:                                               ; preds = %16, %1
  br label %92

23:                                               ; preds = %16
  %24 = load ptr, ptr %2, align 8, !tbaa !55
  %25 = getelementptr inbounds nuw %struct.uv_fs_s, ptr %24, i32 0, i32 6
  %26 = load i64, ptr %25, align 8, !tbaa !57
  %27 = icmp ne i64 %26, 0
  br i1 %27, label %28, label %57

28:                                               ; preds = %23
  %29 = load ptr, ptr %4, align 8, !tbaa !27
  %30 = getelementptr inbounds nuw %struct.poll_ctx, ptr %29, i32 0, i32 1
  %31 = load i32, ptr %30, align 8, !tbaa !58
  %32 = sext i32 %31 to i64
  %33 = load ptr, ptr %2, align 8, !tbaa !55
  %34 = getelementptr inbounds nuw %struct.uv_fs_s, ptr %33, i32 0, i32 6
  %35 = load i64, ptr %34, align 8, !tbaa !57
  %36 = icmp ne i64 %32, %35
  br i1 %36, label %37, label %56

37:                                               ; preds = %28
  %38 = load ptr, ptr %4, align 8, !tbaa !27
  %39 = getelementptr inbounds nuw %struct.poll_ctx, ptr %38, i32 0, i32 5
  %40 = load ptr, ptr %39, align 8, !tbaa !38
  %41 = load ptr, ptr %4, align 8, !tbaa !27
  %42 = getelementptr inbounds nuw %struct.poll_ctx, ptr %41, i32 0, i32 0
  %43 = load ptr, ptr %42, align 8, !tbaa !41
  %44 = load ptr, ptr %2, align 8, !tbaa !55
  %45 = getelementptr inbounds nuw %struct.uv_fs_s, ptr %44, i32 0, i32 6
  %46 = load i64, ptr %45, align 8, !tbaa !57
  %47 = trunc i64 %46 to i32
  %48 = load ptr, ptr %4, align 8, !tbaa !27
  %49 = getelementptr inbounds nuw %struct.poll_ctx, ptr %48, i32 0, i32 8
  call void %40(ptr noundef %43, i32 noundef %47, ptr noundef %49, ptr noundef @zero_statbuf)
  %50 = load ptr, ptr %2, align 8, !tbaa !55
  %51 = getelementptr inbounds nuw %struct.uv_fs_s, ptr %50, i32 0, i32 6
  %52 = load i64, ptr %51, align 8, !tbaa !57
  %53 = trunc i64 %52 to i32
  %54 = load ptr, ptr %4, align 8, !tbaa !27
  %55 = getelementptr inbounds nuw %struct.poll_ctx, ptr %54, i32 0, i32 1
  store i32 %53, ptr %55, align 8, !tbaa !58
  br label %56

56:                                               ; preds = %37, %28
  br label %92

57:                                               ; preds = %23
  %58 = load ptr, ptr %2, align 8, !tbaa !55
  %59 = getelementptr inbounds nuw %struct.uv_fs_s, ptr %58, i32 0, i32 9
  store ptr %59, ptr %3, align 8, !tbaa !17
  %60 = load ptr, ptr %4, align 8, !tbaa !27
  %61 = getelementptr inbounds nuw %struct.poll_ctx, ptr %60, i32 0, i32 1
  %62 = load i32, ptr %61, align 8, !tbaa !58
  %63 = icmp ne i32 %62, 0
  br i1 %63, label %64, label %86

64:                                               ; preds = %57
  %65 = load ptr, ptr %4, align 8, !tbaa !27
  %66 = getelementptr inbounds nuw %struct.poll_ctx, ptr %65, i32 0, i32 1
  %67 = load i32, ptr %66, align 8, !tbaa !58
  %68 = icmp slt i32 %67, 0
  br i1 %68, label %75, label %69

69:                                               ; preds = %64
  %70 = load ptr, ptr %4, align 8, !tbaa !27
  %71 = getelementptr inbounds nuw %struct.poll_ctx, ptr %70, i32 0, i32 8
  %72 = load ptr, ptr %3, align 8, !tbaa !17
  %73 = call i32 @statbuf_eq(ptr noundef %71, ptr noundef %72)
  %74 = icmp ne i32 %73, 0
  br i1 %74, label %85, label %75

75:                                               ; preds = %69, %64
  %76 = load ptr, ptr %4, align 8, !tbaa !27
  %77 = getelementptr inbounds nuw %struct.poll_ctx, ptr %76, i32 0, i32 5
  %78 = load ptr, ptr %77, align 8, !tbaa !38
  %79 = load ptr, ptr %4, align 8, !tbaa !27
  %80 = getelementptr inbounds nuw %struct.poll_ctx, ptr %79, i32 0, i32 0
  %81 = load ptr, ptr %80, align 8, !tbaa !41
  %82 = load ptr, ptr %4, align 8, !tbaa !27
  %83 = getelementptr inbounds nuw %struct.poll_ctx, ptr %82, i32 0, i32 8
  %84 = load ptr, ptr %3, align 8, !tbaa !17
  call void %78(ptr noundef %81, i32 noundef 0, ptr noundef %83, ptr noundef %84)
  br label %85

85:                                               ; preds = %75, %69
  br label %86

86:                                               ; preds = %85, %57
  %87 = load ptr, ptr %4, align 8, !tbaa !27
  %88 = getelementptr inbounds nuw %struct.poll_ctx, ptr %87, i32 0, i32 8
  %89 = load ptr, ptr %3, align 8, !tbaa !17
  call void @llvm.memcpy.p0.p0.i64(ptr align 8 %88, ptr align 8 %89, i64 160, i1 false), !tbaa.struct !59
  %90 = load ptr, ptr %4, align 8, !tbaa !27
  %91 = getelementptr inbounds nuw %struct.poll_ctx, ptr %90, i32 0, i32 1
  store i32 1, ptr %91, align 8, !tbaa !58
  br label %92

92:                                               ; preds = %86, %56, %22
  %93 = load ptr, ptr %2, align 8, !tbaa !55
  call void @uv_fs_req_cleanup(ptr noundef %93)
  %94 = load ptr, ptr %6, align 8, !tbaa !9
  %95 = call i32 @uv_is_active(ptr noundef %94)
  %96 = icmp ne i32 %95, 0
  br i1 %96, label %97, label %103

97:                                               ; preds = %92
  %98 = load ptr, ptr %6, align 8, !tbaa !9
  %99 = getelementptr inbounds nuw %struct.uv_fs_poll_s, ptr %98, i32 0, i32 7
  %100 = load i32, ptr %99, align 8, !tbaa !54
  %101 = and i32 %100, 3
  %102 = icmp ne i32 %101, 0
  br i1 %102, label %103, label %106

103:                                              ; preds = %97, %92
  %104 = load ptr, ptr %4, align 8, !tbaa !27
  %105 = getelementptr inbounds nuw %struct.poll_ctx, ptr %104, i32 0, i32 6
  call void @uv_close(ptr noundef %105, ptr noundef @timer_close_cb)
  store i32 1, ptr %7, align 4
  br label %130

106:                                              ; preds = %97
  %107 = load ptr, ptr %4, align 8, !tbaa !27
  %108 = getelementptr inbounds nuw %struct.poll_ctx, ptr %107, i32 0, i32 2
  %109 = load i32, ptr %108, align 4, !tbaa !39
  %110 = zext i32 %109 to i64
  store i64 %110, ptr %5, align 8, !tbaa !25
  %111 = load ptr, ptr %4, align 8, !tbaa !27
  %112 = getelementptr inbounds nuw %struct.poll_ctx, ptr %111, i32 0, i32 4
  %113 = load ptr, ptr %112, align 8, !tbaa !29
  %114 = call i64 @uv_now(ptr noundef %113)
  %115 = load ptr, ptr %4, align 8, !tbaa !27
  %116 = getelementptr inbounds nuw %struct.poll_ctx, ptr %115, i32 0, i32 3
  %117 = load i64, ptr %116, align 8, !tbaa !40
  %118 = sub i64 %114, %117
  %119 = load i64, ptr %5, align 8, !tbaa !25
  %120 = urem i64 %118, %119
  %121 = load i64, ptr %5, align 8, !tbaa !25
  %122 = sub i64 %121, %120
  store i64 %122, ptr %5, align 8, !tbaa !25
  %123 = load ptr, ptr %4, align 8, !tbaa !27
  %124 = getelementptr inbounds nuw %struct.poll_ctx, ptr %123, i32 0, i32 6
  %125 = load i64, ptr %5, align 8, !tbaa !25
  %126 = call i32 @uv_timer_start(ptr noundef %124, ptr noundef @timer_cb, i64 noundef %125, i64 noundef 0)
  %127 = icmp ne i32 %126, 0
  br i1 %127, label %128, label %129

128:                                              ; preds = %106
  call void @abort() #8
  unreachable

129:                                              ; preds = %106
  store i32 0, ptr %7, align 4
  br label %130

130:                                              ; preds = %129, %103
  call void @llvm.lifetime.end.p0(i64 8, ptr %6) #6
  call void @llvm.lifetime.end.p0(i64 8, ptr %5) #6
  call void @llvm.lifetime.end.p0(i64 8, ptr %4) #6
  call void @llvm.lifetime.end.p0(i64 8, ptr %3) #6
  %131 = load i32, ptr %7, align 4
  switch i32 %131, label %133 [
    i32 0, label %132
    i32 1, label %132
  ]

132:                                              ; preds = %130, %130
  ret void

133:                                              ; preds = %130
  unreachable
}