; Function Attrs: nounwind uwtable
define internal void @poll_cb(ptr noundef %0) #1 {
  %2 = getelementptr inbounds i8, ptr %0, i64 -192
  %3 = load ptr, ptr %2, align 8, !tbaa !35
  %4 = tail call i32 @uv_is_active(ptr noundef %3) #7
  %.not = icmp eq i32 %4, 0
  br i1 %.not, label %117, label %5

5:                                                ; preds = %1
  %6 = getelementptr inbounds nuw i8, ptr %3, i64 88
  %7 = load i32, ptr %6, align 8, !tbaa !48
  %8 = and i32 %7, 3
  %.not36 = icmp eq i32 %8, 0
  br i1 %.not36, label %9, label %117

9:                                                ; preds = %5
  %10 = getelementptr inbounds nuw i8, ptr %0, i64 88
  %11 = load i64, ptr %10, align 8, !tbaa !49
  %.not37 = icmp eq i64 %11, 0
  br i1 %.not37, label %24, label %12

12:                                               ; preds = %9
  %13 = getelementptr inbounds i8, ptr %0, i64 -184
  %14 = load i32, ptr %13, align 8, !tbaa !50
  %15 = sext i32 %14 to i64
  %.not40 = icmp eq i64 %11, %15
  br i1 %.not40, label %117, label %16

16:                                               ; preds = %12
  %17 = getelementptr inbounds i8, ptr %0, i64 -160
  %18 = load ptr, ptr %17, align 8, !tbaa !32
  %19 = load ptr, ptr %2, align 8, !tbaa !35
  %20 = trunc i64 %11 to i32
  %21 = getelementptr inbounds nuw i8, ptr %0, i64 440
  tail call void %18(ptr noundef %19, i32 noundef %20, ptr noundef nonnull %21, ptr noundef nonnull @zero_statbuf) #7
  %22 = load i64, ptr %10, align 8, !tbaa !49
  %23 = trunc i64 %22 to i32
  store i32 %23, ptr %13, align 8, !tbaa !50
  br label %117

24:                                               ; preds = %9
  %25 = getelementptr inbounds nuw i8, ptr %0, i64 112
  %26 = getelementptr inbounds i8, ptr %0, i64 -184
  %27 = load i32, ptr %26, align 8, !tbaa !50
  %.not38 = icmp eq i32 %27, 0
  br i1 %.not38, label %115, label %28

28:                                               ; preds = %24
  %29 = icmp slt i32 %27, 0
  br i1 %29, label %statbuf_eq.exit.thread, label %30

30:                                               ; preds = %28
  %31 = getelementptr inbounds nuw i8, ptr %0, i64 440
  %32 = getelementptr inbounds nuw i8, ptr %0, i64 568
  %33 = getelementptr inbounds nuw i8, ptr %0, i64 576
  %34 = load i64, ptr %33, align 8, !tbaa !51
  %35 = getelementptr inbounds nuw i8, ptr %0, i64 240
  %36 = getelementptr inbounds nuw i8, ptr %0, i64 248
  %37 = load i64, ptr %36, align 8, !tbaa !51
  %38 = icmp eq i64 %34, %37
  br i1 %38, label %39, label %statbuf_eq.exit.thread

39:                                               ; preds = %30
  %40 = getelementptr inbounds nuw i8, ptr %0, i64 552
  %41 = getelementptr inbounds nuw i8, ptr %0, i64 560
  %42 = load i64, ptr %41, align 8, !tbaa !52
  %43 = getelementptr inbounds nuw i8, ptr %0, i64 224
  %44 = getelementptr inbounds nuw i8, ptr %0, i64 232
  %45 = load i64, ptr %44, align 8, !tbaa !52
  %46 = icmp eq i64 %42, %45
  br i1 %46, label %47, label %statbuf_eq.exit.thread

47:                                               ; preds = %39
  %48 = getelementptr inbounds nuw i8, ptr %0, i64 584
  %49 = getelementptr inbounds nuw i8, ptr %0, i64 592
  %50 = load i64, ptr %49, align 8, !tbaa !53
  %51 = getelementptr inbounds nuw i8, ptr %0, i64 256
  %52 = getelementptr inbounds nuw i8, ptr %0, i64 264
  %53 = load i64, ptr %52, align 8, !tbaa !53
  %54 = icmp eq i64 %50, %53
  br i1 %54, label %55, label %statbuf_eq.exit.thread

55:                                               ; preds = %47
  %56 = load i64, ptr %32, align 8, !tbaa !54
  %57 = load i64, ptr %35, align 8, !tbaa !54
  %58 = icmp eq i64 %56, %57
  br i1 %58, label %59, label %statbuf_eq.exit.thread

59:                                               ; preds = %55
  %60 = load i64, ptr %40, align 8, !tbaa !55
  %61 = load i64, ptr %43, align 8, !tbaa !55
  %62 = icmp eq i64 %60, %61
  br i1 %62, label %63, label %statbuf_eq.exit.thread

63:                                               ; preds = %59
  %64 = load i64, ptr %48, align 8, !tbaa !56
  %65 = load i64, ptr %51, align 8, !tbaa !56
  %66 = icmp eq i64 %64, %65
  br i1 %66, label %67, label %statbuf_eq.exit.thread

67:                                               ; preds = %63
  %68 = getelementptr inbounds nuw i8, ptr %0, i64 496
  %69 = load i64, ptr %68, align 8, !tbaa !57
  %70 = getelementptr inbounds nuw i8, ptr %0, i64 168
  %71 = load i64, ptr %70, align 8, !tbaa !57
  %72 = icmp eq i64 %69, %71
  br i1 %72, label %73, label %statbuf_eq.exit.thread

73:                                               ; preds = %67
  %74 = getelementptr inbounds nuw i8, ptr %0, i64 448
  %75 = load i64, ptr %74, align 8, !tbaa !58
  %76 = getelementptr inbounds nuw i8, ptr %0, i64 120
  %77 = load i64, ptr %76, align 8, !tbaa !58
  %78 = icmp eq i64 %75, %77
  br i1 %78, label %79, label %statbuf_eq.exit.thread

79:                                               ; preds = %73
  %80 = getelementptr inbounds nuw i8, ptr %0, i64 464
  %81 = load i64, ptr %80, align 8, !tbaa !59
  %82 = getelementptr inbounds nuw i8, ptr %0, i64 136
  %83 = load i64, ptr %82, align 8, !tbaa !59
  %84 = icmp eq i64 %81, %83
  br i1 %84, label %85, label %statbuf_eq.exit.thread

85:                                               ; preds = %79
  %86 = getelementptr inbounds nuw i8, ptr %0, i64 472
  %87 = load i64, ptr %86, align 8, !tbaa !60
  %88 = getelementptr inbounds nuw i8, ptr %0, i64 144
  %89 = load i64, ptr %88, align 8, !tbaa !60
  %90 = icmp eq i64 %87, %89
  br i1 %90, label %91, label %statbuf_eq.exit.thread

91:                                               ; preds = %85
  %92 = getelementptr inbounds nuw i8, ptr %0, i64 488
  %93 = load i64, ptr %92, align 8, !tbaa !61
  %94 = getelementptr inbounds nuw i8, ptr %0, i64 160
  %95 = load i64, ptr %94, align 8, !tbaa !61
  %96 = icmp eq i64 %93, %95
  br i1 %96, label %97, label %statbuf_eq.exit.thread

97:                                               ; preds = %91
  %98 = load i64, ptr %31, align 8, !tbaa !62
  %99 = load i64, ptr %25, align 8, !tbaa !62
  %100 = icmp eq i64 %98, %99
  br i1 %100, label %101, label %statbuf_eq.exit.thread

101:                                              ; preds = %97
  %102 = getelementptr inbounds nuw i8, ptr %0, i64 520
  %103 = load i64, ptr %102, align 8, !tbaa !63
  %104 = getelementptr inbounds nuw i8, ptr %0, i64 192
  %105 = load i64, ptr %104, align 8, !tbaa !63
  %106 = icmp eq i64 %103, %105
  br i1 %106, label %statbuf_eq.exit, label %statbuf_eq.exit.thread

statbuf_eq.exit:                                  ; preds = %101
  %107 = getelementptr inbounds nuw i8, ptr %0, i64 528
  %108 = load i64, ptr %107, align 8, !tbaa !64
  %109 = getelementptr inbounds nuw i8, ptr %0, i64 200
  %110 = load i64, ptr %109, align 8, !tbaa !64
  %.not45 = icmp eq i64 %108, %110
  br i1 %.not45, label %115, label %statbuf_eq.exit.thread

statbuf_eq.exit.thread:                           ; preds = %30, %39, %47, %55, %59, %63, %67, %73, %79, %85, %91, %97, %101, %statbuf_eq.exit, %28
  %111 = getelementptr inbounds i8, ptr %0, i64 -160
  %112 = load ptr, ptr %111, align 8, !tbaa !32
  %113 = load ptr, ptr %2, align 8, !tbaa !35
  %114 = getelementptr inbounds nuw i8, ptr %0, i64 440
  tail call void %112(ptr noundef %113, i32 noundef 0, ptr noundef nonnull %114, ptr noundef nonnull %25) #7
  br label %115

115:                                              ; preds = %statbuf_eq.exit, %statbuf_eq.exit.thread, %24
  %116 = getelementptr inbounds nuw i8, ptr %0, i64 440
  tail call void @llvm.memcpy.p0.p0.i64(ptr noundef nonnull align 8 dereferenceable(160) %116, ptr noundef nonnull align 8 dereferenceable(160) %25, i64 160, i1 false), !tbaa.struct !65
  store i32 1, ptr %26, align 8, !tbaa !50
  br label %117

117:                                              ; preds = %12, %16, %1, %5, %115
  tail call void @uv_fs_req_cleanup(ptr noundef nonnull %0) #7
  %118 = tail call i32 @uv_is_active(ptr noundef %3) #7
  %.not41 = icmp eq i32 %118, 0
  br i1 %.not41, label %123, label %119

119:                                              ; preds = %117
  %120 = getelementptr inbounds nuw i8, ptr %3, i64 88
  %121 = load i32, ptr %120, align 8, !tbaa !48
  %122 = and i32 %121, 3
  %.not42 = icmp eq i32 %122, 0
  br i1 %.not42, label %125, label %123

123:                                              ; preds = %119, %117
  %124 = getelementptr inbounds i8, ptr %0, i64 -152
  tail call void @uv_close(ptr noundef nonnull %124, ptr noundef nonnull @timer_close_cb) #7
  br label %140

125:                                              ; preds = %119
  %126 = getelementptr inbounds i8, ptr %0, i64 -180
  %127 = load i32, ptr %126, align 4, !tbaa !33
  %128 = zext i32 %127 to i64
  %129 = getelementptr inbounds i8, ptr %0, i64 -168
  %130 = load ptr, ptr %129, align 8, !tbaa !19
  %131 = tail call i64 @uv_now(ptr noundef %130) #7
  %132 = getelementptr inbounds i8, ptr %0, i64 -176
  %133 = load i64, ptr %132, align 8, !tbaa !34
  %134 = sub i64 %131, %133
  %135 = urem i64 %134, %128
  %136 = sub nsw i64 %128, %135
  %137 = getelementptr inbounds i8, ptr %0, i64 -152
  %138 = tail call i32 @uv_timer_start(ptr noundef nonnull %137, ptr noundef nonnull @timer_cb, i64 noundef %136, i64 noundef 0) #7
  %.not43 = icmp eq i32 %138, 0
  br i1 %.not43, label %140, label %139

139:                                              ; preds = %125
  tail call void @abort() #9
  unreachable

140:                                              ; preds = %125, %123
  ret void
}